; ModuleID = '16/1228.c'
source_filename = "16/1228.c"
target datalayout = "e-m:e-p270:32:32-p271:32:32-p272:64:64-i64:64-f80:128-n8:16:32:64-S128"
target triple = "x86_64-pc-linux-gnu"

@.str = private unnamed_addr constant [3 x i8] c"%d\00", align 1
@.str.1 = private unnamed_addr constant [9 x i8] c"%d%d%d%d\00", align 1
@.str.2 = private unnamed_addr constant [7 x i8] c"%d%d%d\00", align 1
@.str.3 = private unnamed_addr constant [5 x i8] c"%d%d\00", align 1

; Function Attrs: noinline nounwind uwtable
define dso_local i32 @main() #0 {
  %1 = alloca i32, align 4
  %2 = alloca i32, align 4
  %3 = alloca i32, align 4
  %4 = alloca i32, align 4
  %5 = alloca i32, align 4
  %6 = alloca i32, align 4
  store i32 0, i32* %1, align 4
  %7 = call i32 (i8*, ...) @__isoc99_scanf(i8* getelementptr inbounds ([3 x i8], [3 x i8]* @.str, i64 0, i64 0), i32* %2)
  %8 = load i32, i32* %2, align 4
  %9 = icmp sgt i32 %8, 999
  br i1 %9, label %10, label %42

10:                                               ; preds = %0
  %11 = load i32, i32* %2, align 4
  %12 = sdiv i32 %11, 1000
  store i32 %12, i32* %3, align 4
  %13 = load i32, i32* %2, align 4
  %14 = load i32, i32* %3, align 4
  %15 = mul nsw i32 %14, 1000
  %16 = sub nsw i32 %13, %15
  %17 = sdiv i32 %16, 100
  store i32 %17, i32* %4, align 4
  %18 = load i32, i32* %2, align 4
  %19 = load i32, i32* %3, align 4
  %20 = mul nsw i32 %19, 1000
  %21 = sub nsw i32 %18, %20
  %22 = load i32, i32* %4, align 4
  %23 = mul nsw i32 %22, 100
  %24 = sub nsw i32 %21, %23
  %25 = sdiv i32 %24, 10
  store i32 %25, i32* %5, align 4
  %26 = load i32, i32* %2, align 4
  %27 = load i32, i32* %3, align 4
  %28 = mul nsw i32 %27, 1000
  %29 = sub nsw i32 %26, %28
  %30 = load i32, i32* %4, align 4
  %31 = mul nsw i32 %30, 100
  %32 = sub nsw i32 %29, %31
  %33 = load i32, i32* %5, align 4
  %34 = mul nsw i32 %33, 10
  %35 = sub nsw i32 %32, %34
  %36 = sdiv i32 %35, 1
  store i32 %36, i32* %6, align 4
  %37 = load i32, i32* %6, align 4
  %38 = load i32, i32* %5, align 4
  %39 = load i32, i32* %4, align 4
  %40 = load i32, i32* %3, align 4
  %41 = call i32 (i8*, ...) @printf(i8* getelementptr inbounds ([9 x i8], [9 x i8]* @.str.1, i64 0, i64 0), i32 %37, i32 %38, i32 %39, i32 %40)
  br label %84

42:                                               ; preds = %0
  %43 = load i32, i32* %2, align 4
  %44 = icmp sgt i32 %43, 99
  br i1 %44, label %45, label %65

45:                                               ; preds = %42
  %46 = load i32, i32* %2, align 4
  %47 = sdiv i32 %46, 100
  store i32 %47, i32* %3, align 4
  %48 = load i32, i32* %2, align 4
  %49 = load i32, i32* %3, align 4
  %50 = mul nsw i32 %49, 100
  %51 = sub nsw i32 %48, %50
  %52 = sdiv i32 %51, 10
  store i32 %52, i32* %4, align 4
  %53 = load i32, i32* %2, align 4
  %54 = load i32, i32* %3, align 4
  %55 = mul nsw i32 %54, 100
  %56 = sub nsw i32 %53, %55
  %57 = load i32, i32* %4, align 4
  %58 = mul nsw i32 %57, 10
  %59 = sub nsw i32 %56, %58
  %60 = sdiv i32 %59, 1
  store i32 %60, i32* %5, align 4
  %61 = load i32, i32* %5, align 4
  %62 = load i32, i32* %4, align 4
  %63 = load i32, i32* %3, align 4
  %64 = call i32 (i8*, ...) @printf(i8* getelementptr inbounds ([7 x i8], [7 x i8]* @.str.2, i64 0, i64 0), i32 %61, i32 %62, i32 %63)
  br label %83

65:                                               ; preds = %42
  %66 = load i32, i32* %2, align 4
  %67 = icmp sgt i32 %66, 9
  br i1 %67, label %68, label %79

68:                                               ; preds = %65
  %69 = load i32, i32* %2, align 4
  %70 = sdiv i32 %69, 10
  store i32 %70, i32* %3, align 4
  %71 = load i32, i32* %2, align 4
  %72 = load i32, i32* %3, align 4
  %73 = mul nsw i32 %72, 10
  %74 = sub nsw i32 %71, %73
  %75 = sdiv i32 %74, 1
  store i32 %75, i32* %4, align 4
  %76 = load i32, i32* %4, align 4
  %77 = load i32, i32* %3, align 4
  %78 = call i32 (i8*, ...) @printf(i8* getelementptr inbounds ([5 x i8], [5 x i8]* @.str.3, i64 0, i64 0), i32 %76, i32 %77)
  br label %82

79:                                               ; preds = %65
  %80 = load i32, i32* %2, align 4
  %81 = call i32 (i8*, ...) @printf(i8* getelementptr inbounds ([3 x i8], [3 x i8]* @.str, i64 0, i64 0), i32 %80)
  br label %82

82:                                               ; preds = %79, %68
  br label %83

83:                                               ; preds = %82, %45
  br label %84

84:                                               ; preds = %83, %10
  ret i32 0
}

declare dso_local i32 @__isoc99_scanf(i8*, ...) #1

declare dso_local i32 @printf(i8*, ...) #1


!llvm.module.flags = !{!0}
!llvm.ident = !{!1}

!0 = !{i32 1, !"wchar_size", i32 4}
!1 = !{!"clang version 10.0.0-4ubuntu1 "}
